target datalayout = "e-m:e-p270:32:32-p271:32:32-p272:64:64-i64:64-i128:128-f80:128-n8:16:32:64-S128"
target triple = "x86_64-pc-linux-gnu"

; Function Attrs: mustprogress uwtable
define linkonce_odr hidden noundef ptr @_ZN11ast_manager6mk_appEP9func_declP4exprS3_(ptr noundef nonnull align 8 dereferenceable(976) %0, ptr noundef %1, ptr noundef %2, ptr noundef %3) #4 comdat align 2 {
  %5 = alloca ptr, align 8
  %6 = alloca ptr, align 8
  %7 = alloca ptr, align 8
  %8 = alloca ptr, align 8
  %9 = alloca [2 x ptr], align 16
  store ptr %0, ptr %5, align 8, !tbaa !3
  store ptr %1, ptr %6, align 8, !tbaa !8
  store ptr %2, ptr %7, align 8, !tbaa !15
  store ptr %3, ptr %8, align 8, !tbaa !15
  %10 = load ptr, ptr %5, align 8
  call void @llvm.lifetime.start.p0(i64 16, ptr %9) #3
  %11 = load ptr, ptr %7, align 8, !tbaa !15
  store ptr %11, ptr %9, align 8, !tbaa !15
  %12 = getelementptr inbounds ptr, ptr %9, i64 1
  %13 = load ptr, ptr %8, align 8, !tbaa !15
  store ptr %13, ptr %12, align 8, !tbaa !15
  %14 = load ptr, ptr %6, align 8, !tbaa !8
  %15 = getelementptr inbounds [2 x ptr], ptr %9, i64 0, i64 0
  %16 = call noundef ptr @_ZN11ast_manager6mk_appEP9func_decljPKP4expr(ptr noundef nonnull align 8 dereferenceable(976) %10, ptr noundef %14, i32 noundef 2, ptr noundef %15)
  call void @llvm.lifetime.end.p0(i64 16, ptr %9) #3
  ret ptr %16
}

; Function Attrs: mustprogress uwtable
define hidden noundef ptr @_Z17mk_list_assoc_appR11ast_managerP9func_decljPKP4expr(ptr noundef nonnull align 8 dereferenceable(976) %0, ptr noundef %1, i32 noundef %2, ptr noundef %3) #4 {
  %5 = alloca ptr, align 8
  %6 = alloca ptr, align 8
  %7 = alloca ptr, align 8
  %8 = alloca i32, align 4
  %9 = alloca ptr, align 8
  %10 = alloca i32, align 4
  %11 = alloca ptr, align 8
  store ptr %0, ptr %6, align 8, !tbaa !3
  store ptr %1, ptr %7, align 8, !tbaa !8
  store i32 %2, ptr %8, align 4, !tbaa !10
  store ptr %3, ptr %9, align 8, !tbaa !12
  %12 = load i32, ptr %8, align 4, !tbaa !10
  %13 = icmp ugt i32 %12, 2
  br i1 %13, label %14, label %50

14:                                               ; preds = %4
  call void @llvm.lifetime.start.p0(i64 4, ptr %10) #3
  %15 = load i32, ptr %8, align 4, !tbaa !10
  %16 = sub i32 %15, 1
  store i32 %16, ptr %10, align 4, !tbaa !10
  call void @llvm.lifetime.start.p0(i64 8, ptr %11) #3
  %17 = load ptr, ptr %6, align 8, !tbaa !3
  %18 = load ptr, ptr %7, align 8, !tbaa !8
  %19 = load ptr, ptr %9, align 8, !tbaa !12
  %20 = load i32, ptr %10, align 4, !tbaa !10
  %21 = sub i32 %20, 1
  %22 = zext i32 %21 to i64
  %23 = getelementptr inbounds nuw ptr, ptr %19, i64 %22
  %24 = load ptr, ptr %23, align 8, !tbaa !15
  %25 = load ptr, ptr %9, align 8, !tbaa !12
  %26 = load i32, ptr %10, align 4, !tbaa !10
  %27 = zext i32 %26 to i64
  %28 = getelementptr inbounds nuw ptr, ptr %25, i64 %27
  %29 = load ptr, ptr %28, align 8, !tbaa !15
  %30 = call noundef ptr @_ZN11ast_manager6mk_appEP9func_declP4exprS3_(ptr noundef nonnull align 8 dereferenceable(976) %17, ptr noundef %18, ptr noundef %24, ptr noundef %29)
  store ptr %30, ptr %11, align 8, !tbaa !17
  %31 = load i32, ptr %10, align 4, !tbaa !10
  %32 = add i32 %31, -1
  store i32 %32, ptr %10, align 4, !tbaa !10
  br label %33

33:                                               ; preds = %36, %14
  %34 = load i32, ptr %10, align 4, !tbaa !10
  %35 = icmp ugt i32 %34, 0
  br i1 %35, label %36, label %48

36:                                               ; preds = %33
  %37 = load i32, ptr %10, align 4, !tbaa !10
  %38 = add i32 %37, -1
  store i32 %38, ptr %10, align 4, !tbaa !10
  %39 = load ptr, ptr %6, align 8, !tbaa !3
  %40 = load ptr, ptr %7, align 8, !tbaa !8
  %41 = load ptr, ptr %9, align 8, !tbaa !12
  %42 = load i32, ptr %10, align 4, !tbaa !10
  %43 = zext i32 %42 to i64
  %44 = getelementptr inbounds nuw ptr, ptr %41, i64 %43
  %45 = load ptr, ptr %44, align 8, !tbaa !15
  %46 = load ptr, ptr %11, align 8, !tbaa !17
  %47 = call noundef ptr @_ZN11ast_manager6mk_appEP9func_declP4exprS3_(ptr noundef nonnull align 8 dereferenceable(976) %39, ptr noundef %40, ptr noundef %45, ptr noundef %46)
  store ptr %47, ptr %11, align 8, !tbaa !17
  br label %33, !llvm.loop !19

48:                                               ; preds = %33
  %49 = load ptr, ptr %11, align 8, !tbaa !17
  store ptr %49, ptr %5, align 8
  call void @llvm.lifetime.end.p0(i64 8, ptr %11) #3
  call void @llvm.lifetime.end.p0(i64 4, ptr %10) #3
  br label %60

50:                                               ; preds = %4
  %51 = load ptr, ptr %6, align 8, !tbaa !3
  %52 = load ptr, ptr %7, align 8, !tbaa !8
  %53 = load ptr, ptr %9, align 8, !tbaa !12
  %54 = getelementptr inbounds ptr, ptr %53, i64 0
  %55 = load ptr, ptr %54, align 8, !tbaa !15
  %56 = load ptr, ptr %9, align 8, !tbaa !12
  %57 = getelementptr inbounds ptr, ptr %56, i64 1
  %58 = load ptr, ptr %57, align 8, !tbaa !15
  %59 = call noundef ptr @_ZN11ast_manager6mk_appEP9func_declP4exprS3_(ptr noundef nonnull align 8 dereferenceable(976) %51, ptr noundef %52, ptr noundef %55, ptr noundef %58)
  store ptr %59, ptr %5, align 8
  br label %60

60:                                               ; preds = %50, %48
  %61 = load ptr, ptr %5, align 8
  ret ptr %61
}