; Function Attrs: mustprogress uwtable
define hidden noundef ptr @_Z17mk_list_assoc_appR11ast_managerP9func_decljPKP4expr(ptr noundef nonnull align 8 dereferenceable(976) %0, ptr noundef %1, i32 noundef %2, ptr noundef readonly captures(none) %3) local_unnamed_addr #3 {
  %5 = alloca [2 x ptr], align 16
  %6 = alloca [2 x ptr], align 16
  %7 = alloca [2 x ptr], align 16
  %8 = icmp ugt i32 %2, 2
  br i1 %8, label %.lr.ph, label %25

.lr.ph:                                           ; preds = %4
  %9 = add i32 %2, -1
  %10 = add i32 %2, -2
  %11 = zext i32 %10 to i64
  %12 = getelementptr inbounds nuw ptr, ptr %3, i64 %11
  %13 = load ptr, ptr %12, align 8, !tbaa !3
  %14 = zext i32 %9 to i64
  %15 = getelementptr inbounds nuw ptr, ptr %3, i64 %14
  %16 = load ptr, ptr %15, align 8, !tbaa !3
  call void @llvm.lifetime.start.p0(i64 16, ptr nonnull %7) #19
  store ptr %13, ptr %7, align 16, !tbaa !3
  %17 = getelementptr inbounds nuw i8, ptr %7, i64 8
  store ptr %16, ptr %17, align 8, !tbaa !3
  %18 = call noundef ptr @_ZN11ast_manager6mk_appEP9func_decljPKP4expr(ptr noundef nonnull align 8 dereferenceable(976) %0, ptr noundef %1, i32 noundef 2, ptr noundef nonnull %7)
  call void @llvm.lifetime.end.p0(i64 16, ptr nonnull %7) #19
  %19 = getelementptr inbounds nuw i8, ptr %6, i64 8
  br label %20

20:                                               ; preds = %.lr.ph, %20
  %indvars.iv = phi i64 [ %11, %.lr.ph ], [ %21, %20 ]
  %.026 = phi ptr [ %18, %.lr.ph ], [ %24, %20 ]
  %21 = add nsw i64 %indvars.iv, -1
  %22 = getelementptr inbounds nuw ptr, ptr %3, i64 %21
  %23 = load ptr, ptr %22, align 8, !tbaa !3
  call void @llvm.lifetime.start.p0(i64 16, ptr nonnull %6) #19
  store ptr %23, ptr %6, align 16, !tbaa !3
  store ptr %.026, ptr %19, align 8, !tbaa !3
  %24 = call noundef ptr @_ZN11ast_manager6mk_appEP9func_decljPKP4expr(ptr noundef nonnull align 8 dereferenceable(976) %0, ptr noundef %1, i32 noundef 2, ptr noundef nonnull %6)
  call void @llvm.lifetime.end.p0(i64 16, ptr nonnull %6) #19
  %.not.wide = icmp eq i64 %21, 0
  br i1 %.not.wide, label %.loopexit, label %20, !llvm.loop !8

25:                                               ; preds = %4
  %26 = load ptr, ptr %3, align 8, !tbaa !3
  %27 = getelementptr inbounds nuw i8, ptr %3, i64 8
  %28 = load ptr, ptr %27, align 8, !tbaa !3
  call void @llvm.lifetime.start.p0(i64 16, ptr nonnull %5) #19
  store ptr %26, ptr %5, align 16, !tbaa !3
  %29 = getelementptr inbounds nuw i8, ptr %5, i64 8
  store ptr %28, ptr %29, align 8, !tbaa !3
  %30 = call noundef ptr @_ZN11ast_manager6mk_appEP9func_decljPKP4expr(ptr noundef nonnull align 8 dereferenceable(976) %0, ptr noundef %1, i32 noundef 2, ptr noundef nonnull %5)
  call void @llvm.lifetime.end.p0(i64 16, ptr nonnull %5) #19
  br label %.loopexit

.loopexit:                                        ; preds = %20, %25
  %.022 = phi ptr [ %30, %25 ], [ %24, %20 ]
  ret ptr %.022
}